target datalayout = "e-m:e-p270:32:32-p271:32:32-p272:64:64-i64:64-i128:128-f80:128-n8:16:32:64-S128"
target triple = "x86_64-pc-linux-gnu"

%struct.TextureDSPEncContext = type { ptr, ptr, ptr }
%struct.AVCodecContext = type { ptr, i32, i32, ptr, i32, i32, ptr, ptr, ptr, i64, i32, i32, ptr, i32, %struct.AVRational, %struct.AVRational, %struct.AVRational, i32, i32, i32, i32, i32, %struct.AVRational, i32, i32, i32, i32, i32, i32, i32, i32, i32, i32, i32, ptr, ptr, i32, float, float, float, float, float, float, float, float, float, i32, i32, i32, i32, i32, i32, i32, i32, i32, i32, i32, i32, ptr, ptr, ptr, i32, i32, i32, i32, i32, i32, i32, i32, i32, i32, %struct.AVChannelLayout, i32, i32, i32, i32, i32, i32, i32, i32, ptr, i32, i32, i32, float, float, i32, i32, i32, i32, i32, ptr, i64, i64, float, float, i32, i32, ptr, ptr, i32, i32, i32, i32, i32, ptr, ptr, ptr, ptr, i32, i32, [8 x i64], i32, i32, i32, i32, i32, i32, i32, ptr, ptr, i32, i32, i32, i32, i32, i32, i32, i32, i32, i32, ptr, ptr, i32, i32, ptr, ptr, ptr, ptr, i32, i32, i64, i32, i32, i64, ptr, i64, ptr, i32, ptr, i32 }
%struct.AVRational = type { i32, i32 }
%struct.AVChannelLayout = type { i32, i32, %union.anon.1, ptr }
%union.anon.1 = type { i64 }
%struct.DXVEncContext = type { ptr, %struct.PutByteContext, ptr, i64, i32, %struct.TextureDSPThreadContext, i32, ptr, ptr, [262144 x %struct.HTEntry], [262144 x %struct.HTEntry] }
%struct.PutByteContext = type { ptr, ptr, ptr, i32 }
%struct.TextureDSPThreadContext = type { %union.anon.2, i64, i32, i32, %union.anon.3, i32, i32, i32, ptr }
%union.anon.2 = type { ptr }
%union.anon.3 = type { ptr }
%struct.HTEntry = type { i32, i32 }

@.str.8 = private unnamed_addr constant [27 x i8] c"Invalid image size %dx%d.\0A\00", align 1
@.str.9 = private unnamed_addr constant [42 x i8] c"Video size %dx%d is not multiple of 4x4.\0A\00", align 1
@.str.10 = private unnamed_addr constant [21 x i8] c"Invalid format %08X\0A\00", align 1
@.str.11 = private unnamed_addr constant [33 x i8] c"Could not initialize CRC table.\0A\00", align 1

; Function Attrs: alwaysinline nounwind willreturn memory(none) uwtable
define internal i32 @av_clip_c(i32 noundef %0, i32 noundef %1, i32 noundef %2) #4 {
  %4 = alloca i32, align 4
  %5 = alloca i32, align 4
  %6 = alloca i32, align 4
  %7 = alloca i32, align 4
  store i32 %0, ptr %5, align 4, !tbaa !33
  store i32 %1, ptr %6, align 4, !tbaa !33
  store i32 %2, ptr %7, align 4, !tbaa !33
  %8 = load i32, ptr %5, align 4, !tbaa !33
  %9 = load i32, ptr %6, align 4, !tbaa !33
  %10 = icmp slt i32 %8, %9
  br i1 %10, label %11, label %13

11:                                               ; preds = %3
  %12 = load i32, ptr %6, align 4, !tbaa !33
  store i32 %12, ptr %4, align 4
  br label %21

13:                                               ; preds = %3
  %14 = load i32, ptr %5, align 4, !tbaa !33
  %15 = load i32, ptr %7, align 4, !tbaa !33
  %16 = icmp sgt i32 %14, %15
  br i1 %16, label %17, label %19

17:                                               ; preds = %13
  %18 = load i32, ptr %7, align 4, !tbaa !33
  store i32 %18, ptr %4, align 4
  br label %21

19:                                               ; preds = %13
  %20 = load i32, ptr %5, align 4, !tbaa !33
  store i32 %20, ptr %4, align 4
  br label %21

21:                                               ; preds = %19, %17, %11
  %22 = load i32, ptr %4, align 4
  ret i32 %22
}

; Function Attrs: cold nounwind optsize uwtable
define internal i32 @dxv_init(ptr noundef %0) #0 {
  %2 = alloca i32, align 4
  %3 = alloca ptr, align 8
  %4 = alloca ptr, align 8
  %5 = alloca %struct.TextureDSPEncContext, align 8
  %6 = alloca i32, align 4
  %7 = alloca i32, align 4
  store ptr %0, ptr %3, align 8, !tbaa !4
  call void @llvm.lifetime.start.p0(i64 8, ptr %4) #9
  %8 = load ptr, ptr %3, align 8, !tbaa !4
  %9 = getelementptr inbounds nuw %struct.AVCodecContext, ptr %8, i32 0, i32 6
  %10 = load ptr, ptr %9, align 8, !tbaa !9
  store ptr %10, ptr %4, align 8, !tbaa !29
  call void @llvm.lifetime.start.p0(i64 24, ptr %5) #9
  call void @llvm.lifetime.start.p0(i64 4, ptr %6) #9
  %11 = load ptr, ptr %3, align 8, !tbaa !4
  %12 = getelementptr inbounds nuw %struct.AVCodecContext, ptr %11, i32 0, i32 18
  %13 = load i32, ptr %12, align 8, !tbaa !31
  %14 = load ptr, ptr %3, align 8, !tbaa !4
  %15 = getelementptr inbounds nuw %struct.AVCodecContext, ptr %14, i32 0, i32 19
  %16 = load i32, ptr %15, align 4, !tbaa !32
  %17 = load ptr, ptr %3, align 8, !tbaa !4
  %18 = call i32 @av_image_check_size(i32 noundef %13, i32 noundef %16, i32 noundef 0, ptr noundef %17)
  store i32 %18, ptr %6, align 4, !tbaa !33
  %19 = load i32, ptr %6, align 4, !tbaa !33
  %20 = icmp slt i32 %19, 0
  br i1 %20, label %21, label %30

21:                                               ; preds = %1
  %22 = load ptr, ptr %3, align 8, !tbaa !4
  %23 = load ptr, ptr %3, align 8, !tbaa !4
  %24 = getelementptr inbounds nuw %struct.AVCodecContext, ptr %23, i32 0, i32 18
  %25 = load i32, ptr %24, align 8, !tbaa !31
  %26 = load ptr, ptr %3, align 8, !tbaa !4
  %27 = getelementptr inbounds nuw %struct.AVCodecContext, ptr %26, i32 0, i32 19
  %28 = load i32, ptr %27, align 4, !tbaa !32
  call void (ptr, i32, ptr, ...) @av_log(ptr noundef %22, i32 noundef 16, ptr noundef @.str.8, i32 noundef %25, i32 noundef %28)
  %29 = load i32, ptr %6, align 4, !tbaa !33
  store i32 %29, ptr %2, align 4
  store i32 1, ptr %7, align 4
  br label %124

30:                                               ; preds = %1
  %31 = load ptr, ptr %3, align 8, !tbaa !4
  %32 = getelementptr inbounds nuw %struct.AVCodecContext, ptr %31, i32 0, i32 18
  %33 = load i32, ptr %32, align 8, !tbaa !31
  %34 = srem i32 %33, 4
  %35 = icmp ne i32 %34, 0
  br i1 %35, label %42, label %36

36:                                               ; preds = %30
  %37 = load ptr, ptr %3, align 8, !tbaa !4
  %38 = getelementptr inbounds nuw %struct.AVCodecContext, ptr %37, i32 0, i32 19
  %39 = load i32, ptr %38, align 4, !tbaa !32
  %40 = srem i32 %39, 4
  %41 = icmp ne i32 %40, 0
  br i1 %41, label %42, label %50

42:                                               ; preds = %36, %30
  %43 = load ptr, ptr %3, align 8, !tbaa !4
  %44 = load ptr, ptr %3, align 8, !tbaa !4
  %45 = getelementptr inbounds nuw %struct.AVCodecContext, ptr %44, i32 0, i32 18
  %46 = load i32, ptr %45, align 8, !tbaa !31
  %47 = load ptr, ptr %3, align 8, !tbaa !4
  %48 = getelementptr inbounds nuw %struct.AVCodecContext, ptr %47, i32 0, i32 19
  %49 = load i32, ptr %48, align 4, !tbaa !32
  call void (ptr, i32, ptr, ...) @av_log(ptr noundef %43, i32 noundef 16, ptr noundef @.str.9, i32 noundef %46, i32 noundef %49)
  store i32 -1094995529, ptr %2, align 4
  store i32 1, ptr %7, align 4
  br label %124

50:                                               ; preds = %36
  call void @ff_texturedspenc_init(ptr noundef %5)
  %51 = load ptr, ptr %4, align 8, !tbaa !29
  %52 = getelementptr inbounds nuw %struct.DXVEncContext, ptr %51, i32 0, i32 6
  %53 = load i32, ptr %52, align 8, !tbaa !34
  switch i32 %53, label %65 [
    i32 1146639409, label %54
  ]

54:                                               ; preds = %50
  %55 = load ptr, ptr %4, align 8, !tbaa !29
  %56 = getelementptr inbounds nuw %struct.DXVEncContext, ptr %55, i32 0, i32 7
  store ptr @dxv_compress_dxt1, ptr %56, align 8, !tbaa !38
  %57 = getelementptr inbounds nuw %struct.TextureDSPEncContext, ptr %5, i32 0, i32 0
  %58 = load ptr, ptr %57, align 8, !tbaa !39
  %59 = load ptr, ptr %4, align 8, !tbaa !29
  %60 = getelementptr inbounds nuw %struct.DXVEncContext, ptr %59, i32 0, i32 5
  %61 = getelementptr inbounds nuw %struct.TextureDSPThreadContext, ptr %60, i32 0, i32 8
  store ptr %58, ptr %61, align 8, !tbaa !41
  %62 = load ptr, ptr %4, align 8, !tbaa !29
  %63 = getelementptr inbounds nuw %struct.DXVEncContext, ptr %62, i32 0, i32 5
  %64 = getelementptr inbounds nuw %struct.TextureDSPThreadContext, ptr %63, i32 0, i32 5
  store i32 8, ptr %64, align 8, !tbaa !42
  br label %70

65:                                               ; preds = %50
  %66 = load ptr, ptr %3, align 8, !tbaa !4
  %67 = load ptr, ptr %4, align 8, !tbaa !29
  %68 = getelementptr inbounds nuw %struct.DXVEncContext, ptr %67, i32 0, i32 6
  %69 = load i32, ptr %68, align 8, !tbaa !34
  call void (ptr, i32, ptr, ...) @av_log(ptr noundef %66, i32 noundef 16, ptr noundef @.str.10, i32 noundef %69)
  store i32 -1094995529, ptr %2, align 4
  store i32 1, ptr %7, align 4
  br label %124

70:                                               ; preds = %54
  %71 = load ptr, ptr %4, align 8, !tbaa !29
  %72 = getelementptr inbounds nuw %struct.DXVEncContext, ptr %71, i32 0, i32 5
  %73 = getelementptr inbounds nuw %struct.TextureDSPThreadContext, ptr %72, i32 0, i32 6
  store i32 16, ptr %73, align 4, !tbaa !43
  %74 = load ptr, ptr %3, align 8, !tbaa !4
  %75 = getelementptr inbounds nuw %struct.AVCodecContext, ptr %74, i32 0, i32 18
  %76 = load i32, ptr %75, align 8, !tbaa !31
  %77 = sdiv i32 %76, 4
  %78 = load ptr, ptr %3, align 8, !tbaa !4
  %79 = getelementptr inbounds nuw %struct.AVCodecContext, ptr %78, i32 0, i32 19
  %80 = load i32, ptr %79, align 4, !tbaa !32
  %81 = mul nsw i32 %77, %80
  %82 = sdiv i32 %81, 4
  %83 = load ptr, ptr %4, align 8, !tbaa !29
  %84 = getelementptr inbounds nuw %struct.DXVEncContext, ptr %83, i32 0, i32 5
  %85 = getelementptr inbounds nuw %struct.TextureDSPThreadContext, ptr %84, i32 0, i32 5
  %86 = load i32, ptr %85, align 8, !tbaa !42
  %87 = mul nsw i32 %82, %86
  %88 = sext i32 %87 to i64
  %89 = load ptr, ptr %4, align 8, !tbaa !29
  %90 = getelementptr inbounds nuw %struct.DXVEncContext, ptr %89, i32 0, i32 3
  store i64 %88, ptr %90, align 8, !tbaa !44
  %91 = load ptr, ptr %3, align 8, !tbaa !4
  %92 = getelementptr inbounds nuw %struct.AVCodecContext, ptr %91, i32 0, i32 116
  %93 = load i32, ptr %92, align 8, !tbaa !45
  %94 = load ptr, ptr %3, align 8, !tbaa !4
  %95 = getelementptr inbounds nuw %struct.AVCodecContext, ptr %94, i32 0, i32 19
  %96 = load i32, ptr %95, align 4, !tbaa !32
  %97 = sdiv i32 %96, 4
  %98 = call i32 @av_clip_c(i32 noundef %93, i32 noundef 1, i32 noundef %97) #10
  %99 = load ptr, ptr %4, align 8, !tbaa !29
  %100 = getelementptr inbounds nuw %struct.DXVEncContext, ptr %99, i32 0, i32 5
  %101 = getelementptr inbounds nuw %struct.TextureDSPThreadContext, ptr %100, i32 0, i32 7
  store i32 %98, ptr %101, align 8, !tbaa !46
  %102 = load ptr, ptr %4, align 8, !tbaa !29
  %103 = getelementptr inbounds nuw %struct.DXVEncContext, ptr %102, i32 0, i32 3
  %104 = load i64, ptr %103, align 8, !tbaa !44
  %105 = call noalias ptr @av_malloc(i64 noundef %104)
  %106 = load ptr, ptr %4, align 8, !tbaa !29
  %107 = getelementptr inbounds nuw %struct.DXVEncContext, ptr %106, i32 0, i32 2
  store ptr %105, ptr %107, align 8, !tbaa !47
  %108 = load ptr, ptr %4, align 8, !tbaa !29
  %109 = getelementptr inbounds nuw %struct.DXVEncContext, ptr %108, i32 0, i32 2
  %110 = load ptr, ptr %109, align 8, !tbaa !47
  %111 = icmp ne ptr %110, null
  br i1 %111, label %113, label %112

112:                                              ; preds = %70
  store i32 -12, ptr %2, align 4
  store i32 1, ptr %7, align 4
  br label %124

113:                                              ; preds = %70
  %114 = call ptr @av_crc_get_table(i32 noundef 3)
  %115 = load ptr, ptr %4, align 8, !tbaa !29
  %116 = getelementptr inbounds nuw %struct.DXVEncContext, ptr %115, i32 0, i32 8
  store ptr %114, ptr %116, align 8, !tbaa !48
  %117 = load ptr, ptr %4, align 8, !tbaa !29
  %118 = getelementptr inbounds nuw %struct.DXVEncContext, ptr %117, i32 0, i32 8
  %119 = load ptr, ptr %118, align 8, !tbaa !48
  %120 = icmp ne ptr %119, null
  br i1 %120, label %123, label %121

121:                                              ; preds = %113
  %122 = load ptr, ptr %3, align 8, !tbaa !4
  call void (ptr, i32, ptr, ...) @av_log(ptr noundef %122, i32 noundef 16, ptr noundef @.str.11)
  store i32 -558323010, ptr %2, align 4
  store i32 1, ptr %7, align 4
  br label %124

123:                                              ; preds = %113
  store i32 0, ptr %2, align 4
  store i32 1, ptr %7, align 4
  br label %124

124:                                              ; preds = %123, %121, %112, %65, %42, %21
  call void @llvm.lifetime.end.p0(i64 4, ptr %6) #9
  call void @llvm.lifetime.end.p0(i64 24, ptr %5) #9
  call void @llvm.lifetime.end.p0(i64 8, ptr %4) #9
  %125 = load i32, ptr %2, align 4
  ret i32 %125
}