; Function Attrs: cold nounwind optsize uwtable
define internal range(i32 -2147483648, 1) i32 @dxv_init(ptr noundef %0) #0 {
  %2 = alloca %struct.TextureDSPEncContext, align 8
  %3 = getelementptr inbounds nuw i8, ptr %0, i64 32
  %4 = load ptr, ptr %3, align 8, !tbaa !4
  call void @llvm.lifetime.start.p0(i64 24, ptr nonnull %2) #8
  %5 = getelementptr inbounds nuw i8, ptr %0, i64 112
  %6 = load i32, ptr %5, align 8, !tbaa !27
  %7 = getelementptr inbounds nuw i8, ptr %0, i64 116
  %8 = load i32, ptr %7, align 4, !tbaa !28
  %9 = tail call i32 @av_image_check_size(i32 noundef %6, i32 noundef %8, i32 noundef 0, ptr noundef %0) #8
  %10 = icmp slt i32 %9, 0
  %11 = load i32, ptr %5, align 8, !tbaa !27
  br i1 %10, label %12, label %14

12:                                               ; preds = %1
  %13 = load i32, ptr %7, align 4, !tbaa !28
  tail call void (ptr, i32, ptr, ...) @av_log(ptr noundef nonnull %0, i32 noundef 16, ptr noundef nonnull @.str.8, i32 noundef %11, i32 noundef %13) #8
  br label %47

14:                                               ; preds = %1
  %15 = and i32 %11, 3
  %.not = icmp eq i32 %15, 0
  %.pre = load i32, ptr %7, align 4, !tbaa !28
  %16 = and i32 %.pre, 3
  %.not36 = icmp eq i32 %16, 0
  %or.cond = select i1 %.not, i1 %.not36, i1 false
  br i1 %or.cond, label %18, label %17

17:                                               ; preds = %14
  tail call void (ptr, i32, ptr, ...) @av_log(ptr noundef nonnull %0, i32 noundef 16, ptr noundef nonnull @.str.9, i32 noundef %11, i32 noundef %.pre) #8
  br label %47

18:                                               ; preds = %14
  call void @ff_texturedspenc_init(ptr noundef nonnull %2) #8
  %19 = getelementptr inbounds nuw i8, ptr %4, i64 120
  %20 = load i32, ptr %19, align 8, !tbaa !29
  %cond = icmp eq i32 %20, 1146639409
  br i1 %cond, label %21, label %42

21:                                               ; preds = %18
  %22 = getelementptr inbounds nuw i8, ptr %4, i64 128
  store ptr @dxv_compress_dxt1, ptr %22, align 8, !tbaa !33
  %23 = load ptr, ptr %2, align 8, !tbaa !34
  %24 = getelementptr inbounds nuw i8, ptr %4, i64 112
  store ptr %23, ptr %24, align 8, !tbaa !36
  %25 = getelementptr inbounds nuw i8, ptr %4, i64 96
  store i32 8, ptr %25, align 8, !tbaa !37
  %26 = getelementptr inbounds nuw i8, ptr %4, i64 100
  store i32 16, ptr %26, align 4, !tbaa !38
  %27 = load i32, ptr %5, align 8, !tbaa !27
  %28 = sdiv i32 %27, 4
  %29 = load i32, ptr %7, align 4, !tbaa !28
  %30 = mul nsw i32 %28, %29
  %31 = sdiv i32 %30, 4
  %32 = shl nsw i32 %31, 3
  %33 = sext i32 %32 to i64
  %34 = getelementptr inbounds nuw i8, ptr %4, i64 48
  store i64 %33, ptr %34, align 8, !tbaa !39
  %35 = getelementptr inbounds nuw i8, ptr %0, i64 656
  %36 = load i32, ptr %35, align 8, !tbaa !40
  %37 = sdiv i32 %29, 4
  %38 = icmp slt i32 %36, 1
  %..i = call i32 @llvm.smin.i32(i32 %36, i32 %37)
  %.0.i = select i1 %38, i32 1, i32 %..i
  %39 = getelementptr inbounds nuw i8, ptr %4, i64 104
  store i32 %.0.i, ptr %39, align 8, !tbaa !41
  %40 = call noalias ptr @av_malloc(i64 noundef %33) #8
  %41 = getelementptr inbounds nuw i8, ptr %4, i64 40
  store ptr %40, ptr %41, align 8, !tbaa !42
  %.not37 = icmp eq ptr %40, null
  br i1 %.not37, label %47, label %43

42:                                               ; preds = %18
  call void (ptr, i32, ptr, ...) @av_log(ptr noundef nonnull %0, i32 noundef 16, ptr noundef nonnull @.str.10, i32 noundef %20) #8
  br label %47

43:                                               ; preds = %21
  %44 = call ptr @av_crc_get_table(i32 noundef 3) #8
  %45 = getelementptr inbounds nuw i8, ptr %4, i64 136
  store ptr %44, ptr %45, align 8, !tbaa !43
  %.not38 = icmp eq ptr %44, null
  br i1 %.not38, label %46, label %47

46:                                               ; preds = %43
  call void (ptr, i32, ptr, ...) @av_log(ptr noundef nonnull %0, i32 noundef 16, ptr noundef nonnull @.str.11) #8
  br label %47

47:                                               ; preds = %43, %21, %46, %42, %17, %12
  %.0 = phi i32 [ %9, %12 ], [ -1094995529, %17 ], [ -558323010, %46 ], [ -1094995529, %42 ], [ -12, %21 ], [ 0, %43 ]
  call void @llvm.lifetime.end.p0(i64 24, ptr nonnull %2) #8
  ret i32 %.0
}